target datalayout = "e-m:e-p270:32:32-p271:32:32-p272:64:64-i64:64-i128:128-f80:128-n8:16:32:64-S128"
target triple = "x86_64-pc-linux-gnu"

; Function Attrs: inlinehint mustprogress nounwind uwtable
define internal noundef signext i8 @_ZL9U_SUCCESS10UErrorCode(i32 noundef %0) #4 {
  %2 = alloca i32, align 4
  store i32 %0, ptr %2, align 4, !tbaa !54
  %3 = load i32, ptr %2, align 4, !tbaa !54
  %4 = icmp sle i32 %3, 0
  %5 = zext i1 %4 to i8
  ret i8 %5
}

; Function Attrs: mustprogress uwtable
define internal noundef i32 @_ZL34u_scanf_skip_leading_positive_signP5UFILEPPvP10UErrorCode(ptr noundef %0, ptr noundef %1, ptr noundef %2) #0 {
  %4 = alloca ptr, align 8
  %5 = alloca ptr, align 8
  %6 = alloca ptr, align 8
  %7 = alloca i16, align 2
  %8 = alloca i32, align 4
  %9 = alloca i8, align 1
  %10 = alloca [8 x i16], align 16
  %11 = alloca i32, align 4
  %12 = alloca i32, align 4
  store ptr %0, ptr %4, align 8, !tbaa !3
  store ptr %1, ptr %5, align 8, !tbaa !64
  store ptr %2, ptr %6, align 8, !tbaa !30
  call void @llvm.lifetime.start.p0(i64 2, ptr %7) #5
  call void @llvm.lifetime.start.p0(i64 4, ptr %8) #5
  store i32 0, ptr %8, align 4, !tbaa !12
  call void @llvm.lifetime.start.p0(i64 1, ptr %9) #5
  call void @llvm.lifetime.start.p0(i64 16, ptr %10) #5
  call void @llvm.lifetime.start.p0(i64 4, ptr %11) #5
  call void @llvm.lifetime.start.p0(i64 4, ptr %12) #5
  store i32 0, ptr %12, align 4, !tbaa !54
  %13 = load ptr, ptr %6, align 8, !tbaa !30
  %14 = load i32, ptr %13, align 4, !tbaa !54
  %15 = call noundef signext i8 @_ZL9U_SUCCESS10UErrorCode(i32 noundef %14)
  %16 = icmp ne i8 %15, 0
  br i1 %16, label %17, label %60

17:                                               ; preds = %3
  %18 = load ptr, ptr %5, align 8, !tbaa !64
  %19 = getelementptr inbounds [8 x i16], ptr %10, i64 0, i64 0
  %20 = call i32 @unum_getSymbol_77(ptr noundef %18, i32 noundef 7, ptr noundef %19, i32 noundef 8, ptr noundef %12)
  store i32 %20, ptr %11, align 4, !tbaa !12
  %21 = load i32, ptr %12, align 4, !tbaa !54
  %22 = call noundef signext i8 @_ZL9U_SUCCESS10UErrorCode(i32 noundef %21)
  %23 = icmp ne i8 %22, 0
  br i1 %23, label %24, label %59

24:                                               ; preds = %17
  br label %25

25:                                               ; preds = %47, %24
  %26 = load ptr, ptr %4, align 8, !tbaa !3
  %27 = call signext i8 @ufile_getch_77(ptr noundef %26, ptr noundef %7)
  store i8 %27, ptr %9, align 1, !tbaa !28
  %28 = sext i8 %27 to i32
  %29 = icmp eq i32 %28, 1
  br i1 %29, label %30, label %45

30:                                               ; preds = %25
  %31 = load i32, ptr %8, align 4, !tbaa !12
  %32 = load i32, ptr %11, align 4, !tbaa !12
  %33 = icmp slt i32 %31, %32
  br i1 %33, label %34, label %43

34:                                               ; preds = %30
  %35 = load i16, ptr %7, align 2, !tbaa !14
  %36 = zext i16 %35 to i32
  %37 = load i32, ptr %8, align 4, !tbaa !12
  %38 = sext i32 %37 to i64
  %39 = getelementptr inbounds [8 x i16], ptr %10, i64 0, i64 %38
  %40 = load i16, ptr %39, align 2, !tbaa !14
  %41 = zext i16 %40 to i32
  %42 = icmp eq i32 %36, %41
  br label %43

43:                                               ; preds = %34, %30
  %44 = phi i1 [ false, %30 ], [ %42, %34 ]
  br label %45

45:                                               ; preds = %43, %25
  %46 = phi i1 [ false, %25 ], [ %44, %43 ]
  br i1 %46, label %47, label %50

47:                                               ; preds = %45
  %48 = load i32, ptr %8, align 4, !tbaa !12
  %49 = add nsw i32 %48, 1
  store i32 %49, ptr %8, align 4, !tbaa !12
  br label %25, !llvm.loop !83

50:                                               ; preds = %45
  %51 = load i8, ptr %9, align 1, !tbaa !28
  %52 = icmp ne i8 %51, 0
  br i1 %52, label %53, label %58

53:                                               ; preds = %50
  %54 = load i16, ptr %7, align 2, !tbaa !14
  %55 = zext i16 %54 to i32
  %56 = load ptr, ptr %4, align 8, !tbaa !3
  %57 = call i32 @u_fungetc_77(i32 noundef %55, ptr noundef %56)
  br label %58

58:                                               ; preds = %53, %50
  br label %59

59:                                               ; preds = %58, %17
  br label %60

60:                                               ; preds = %59, %3
  %61 = load i32, ptr %8, align 4, !tbaa !12
  call void @llvm.lifetime.end.p0(i64 4, ptr %12) #5
  call void @llvm.lifetime.end.p0(i64 4, ptr %11) #5
  call void @llvm.lifetime.end.p0(i64 16, ptr %10) #5
  call void @llvm.lifetime.end.p0(i64 1, ptr %9) #5
  call void @llvm.lifetime.end.p0(i64 4, ptr %8) #5
  call void @llvm.lifetime.end.p0(i64 2, ptr %7) #5
  ret i32 %61
}