; Function Attrs: mustprogress uwtable
define internal fastcc noundef i32 @_ZL34u_scanf_skip_leading_positive_signP5UFILEPPvP10UErrorCode(ptr noundef %0, ptr noundef %1, i32 %.0.val) unnamed_addr #0 {
  %3 = alloca i16, align 2
  %4 = alloca [8 x i16], align 16
  %5 = alloca i32, align 4
  call void @llvm.lifetime.start.p0(i64 2, ptr nonnull %3) #6
  call void @llvm.lifetime.start.p0(i64 16, ptr nonnull %4) #6
  call void @llvm.lifetime.start.p0(i64 4, ptr nonnull %5) #6
  store i32 0, ptr %5, align 4, !tbaa !36
  %6 = icmp sgt i32 %.0.val, 0
  br i1 %6, label %28, label %7

7:                                                ; preds = %2
  %8 = call i32 @unum_getSymbol_77(ptr noundef %1, i32 noundef 7, ptr noundef nonnull %4, i32 noundef 8, ptr noundef nonnull %5)
  %9 = load i32, ptr %5, align 4, !tbaa !36
  %10 = icmp sgt i32 %9, 0
  br i1 %10, label %28, label %.preheader

.preheader:                                       ; preds = %7
  %11 = call signext i8 @ufile_getch_77(ptr noundef %0, ptr noundef nonnull %3)
  %12 = icmp eq i8 %11, 1
  %13 = icmp sgt i32 %8, 0
  %or.cond5 = select i1 %12, i1 %13, i1 false
  br i1 %or.cond5, label %.lr.ph.preheader, label %.critedge

.lr.ph.preheader:                                 ; preds = %.preheader
  %14 = zext nneg i32 %8 to i64
  br label %.lr.ph

.lr.ph:                                           ; preds = %.lr.ph.preheader, %19
  %indvars.iv = phi i64 [ 0, %.lr.ph.preheader ], [ %indvars.iv.next, %19 ]
  %15 = load i16, ptr %3, align 2, !tbaa !7
  %16 = getelementptr inbounds nuw [8 x i16], ptr %4, i64 0, i64 %indvars.iv
  %17 = load i16, ptr %16, align 2, !tbaa !7
  %18 = icmp eq i16 %15, %17
  br i1 %18, label %19, label %.critedge.thread.loopexit

19:                                               ; preds = %.lr.ph
  %indvars.iv.next = add nuw nsw i64 %indvars.iv, 1
  %20 = call signext i8 @ufile_getch_77(ptr noundef %0, ptr noundef nonnull %3)
  %21 = icmp eq i8 %20, 1
  %22 = icmp samesign ult i64 %indvars.iv.next, %14
  %or.cond = select i1 %21, i1 %22, i1 false
  br i1 %or.cond, label %.lr.ph, label %.critedge.loopexit, !llvm.loop !64

.critedge.loopexit:                               ; preds = %19
  %23 = trunc nuw nsw i64 %indvars.iv.next to i32
  br label %.critedge

.critedge:                                        ; preds = %.critedge.loopexit, %.preheader
  %.1.lcssa = phi i32 [ 0, %.preheader ], [ %23, %.critedge.loopexit ]
  %.lcssa = phi i8 [ %11, %.preheader ], [ %20, %.critedge.loopexit ]
  %.not10 = icmp eq i8 %.lcssa, 0
  br i1 %.not10, label %28, label %.critedge..critedge.thread_crit_edge

.critedge..critedge.thread_crit_edge:             ; preds = %.critedge
  %.pre = load i16, ptr %3, align 2, !tbaa !7
  br label %.critedge.thread

.critedge.thread.loopexit:                        ; preds = %.lr.ph
  %24 = trunc nuw nsw i64 %indvars.iv to i32
  br label %.critedge.thread

.critedge.thread:                                 ; preds = %.critedge..critedge.thread_crit_edge, %.critedge.thread.loopexit
  %25 = phi i16 [ %.pre, %.critedge..critedge.thread_crit_edge ], [ %15, %.critedge.thread.loopexit ]
  %.14 = phi i32 [ %.1.lcssa, %.critedge..critedge.thread_crit_edge ], [ %24, %.critedge.thread.loopexit ]
  %26 = zext i16 %25 to i32
  %27 = call i32 @u_fungetc_77(i32 noundef %26, ptr noundef %0)
  br label %28

28:                                               ; preds = %7, %.critedge.thread, %.critedge, %2
  %.0 = phi i32 [ %.14, %.critedge.thread ], [ %.1.lcssa, %.critedge ], [ 0, %7 ], [ 0, %2 ]
  call void @llvm.lifetime.end.p0(i64 4, ptr nonnull %5) #6
  call void @llvm.lifetime.end.p0(i64 16, ptr nonnull %4) #6
  call void @llvm.lifetime.end.p0(i64 2, ptr nonnull %3) #6
  ret i32 %.0
}